target datalayout = "e-m:e-p270:32:32-p271:32:32-p272:64:64-i64:64-i128:128-f80:128-n8:16:32:64-S128"
target triple = "x86_64-pc-linux-gnu"

%"class.gmx::internal::SelectionData" = type <{ %"class.std::__cxx11::basic_string", %"class.std::__cxx11::basic_string", %struct.gmx_ana_pos_t, %"class.std::vector", %"class.std::vector", %"class.gmx::FlagsTemplate", ptr, i32, float, float, i8, i8, [2 x i8] }>
%"class.std::__cxx11::basic_string" = type { %"struct.std::__cxx11::basic_string<char>::_Alloc_hider", i64, %union.anon }
%"struct.std::__cxx11::basic_string<char>::_Alloc_hider" = type { ptr }
%union.anon = type { i64, [8 x i8] }
%struct.gmx_ana_pos_t = type <{ ptr, ptr, ptr, %struct.gmx_ana_indexmap_t, i32, [4 x i8] }>
%struct.gmx_ana_indexmap_t = type { i32, ptr, ptr, %struct.t_blocka, ptr, %struct.t_blocka, i8 }
%struct.t_blocka = type { i32, ptr, i32, ptr, i32, i32 }
%"class.std::vector" = type { %"struct.std::_Vector_base" }
%"struct.std::_Vector_base" = type { %"struct.std::_Vector_base<float, std::allocator<float>>::_Vector_impl" }
%"struct.std::_Vector_base<float, std::allocator<float>>::_Vector_impl" = type { %"struct.std::_Vector_base<float, std::allocator<float>>::_Vector_impl_data" }
%"struct.std::_Vector_base<float, std::allocator<float>>::_Vector_impl_data" = type { ptr, ptr, ptr }
%"class.gmx::FlagsTemplate" = type { i64 }
%struct.gmx_ana_index_t = type { i32, ptr, i32 }

; Function Attrs: mustprogress uwtable
define noundef zeroext i1 @_ZNK3gmx8internal13SelectionData20hasSortedAtomIndicesEv(ptr noundef nonnull align 8 dereferenceable(294) %0) #0 align 2 {
  %2 = alloca ptr, align 8
  %3 = alloca %struct.gmx_ana_index_t, align 8
  store ptr %0, ptr %2, align 8
  %4 = load ptr, ptr %2, align 8
  %5 = getelementptr inbounds %"class.gmx::internal::SelectionData", ptr %4, i32 0, i32 2
  %6 = getelementptr inbounds %struct.gmx_ana_pos_t, ptr %5, i32 0, i32 3
  %7 = getelementptr inbounds %struct.gmx_ana_indexmap_t, ptr %6, i32 0, i32 3
  %8 = getelementptr inbounds %struct.t_blocka, ptr %7, i32 0, i32 2
  %9 = load i32, ptr %8, align 8
  %10 = getelementptr inbounds %"class.gmx::internal::SelectionData", ptr %4, i32 0, i32 2
  %11 = getelementptr inbounds %struct.gmx_ana_pos_t, ptr %10, i32 0, i32 3
  %12 = getelementptr inbounds %struct.gmx_ana_indexmap_t, ptr %11, i32 0, i32 3
  %13 = getelementptr inbounds %struct.t_blocka, ptr %12, i32 0, i32 3
  %14 = load ptr, ptr %13, align 8
  call void @_Z17gmx_ana_index_setP15gmx_ana_index_tiPii(ptr noundef %3, i32 noundef %9, ptr noundef %14, i32 noundef -1)
  %15 = call noundef zeroext i1 @_Z26gmx_ana_index_check_sortedP15gmx_ana_index_t(ptr noundef %3)
  ret i1 %15
}