; Function Attrs: mustprogress uwtable
define noundef zeroext i1 @_ZNK3gmx8internal13SelectionData20hasSortedAtomIndicesEv(ptr nocapture noundef nonnull readonly align 8 dereferenceable(294) %0) local_unnamed_addr #0 align 2 {
  %2 = alloca %struct.gmx_ana_index_t, align 8
  %3 = getelementptr inbounds i8, ptr %0, i64 128
  %4 = load i32, ptr %3, align 8
  %5 = getelementptr inbounds i8, ptr %0, i64 136
  %6 = load ptr, ptr %5, align 8
  call void @_Z17gmx_ana_index_setP15gmx_ana_index_tiPii(ptr noundef nonnull %2, i32 noundef %4, ptr noundef %6, i32 noundef -1)
  %7 = call noundef zeroext i1 @_Z26gmx_ana_index_check_sortedP15gmx_ana_index_t(ptr noundef nonnull %2)
  ret i1 %7
}